; Function Attrs: mustprogress nofree norecurse nosync nounwind willreturn memory(read, inaccessiblemem: none) uwtable
define hidden noundef range(i32 0, 3) i32 @_ZNK7PhiNode14is_diamond_phiEv(ptr nocapture noundef nonnull readonly align 8 dereferenceable(88) %0) local_unnamed_addr #0 align 2 {
  %2 = getelementptr inbounds i8, ptr %0, i64 8
  %3 = load ptr, ptr %2, align 8
  %4 = load ptr, ptr %3, align 8
  %5 = getelementptr inbounds i8, ptr %4, i64 24
  %6 = load i32, ptr %5, align 8
  %.not.i = icmp eq i32 %6, 3
  br i1 %.not.i, label %7, label %_ZNK10RegionNode10is_diamondEv.exit.thread

7:                                                ; preds = %1
  %8 = getelementptr inbounds i8, ptr %4, i64 8
  %9 = load ptr, ptr %8, align 8
  %10 = getelementptr inbounds i8, ptr %9, i64 8
  %11 = load ptr, ptr %10, align 8
  %12 = getelementptr inbounds i8, ptr %9, i64 16
  %13 = load ptr, ptr %12, align 8
  %14 = icmp eq ptr %11, null
  %15 = icmp eq ptr %13, null
  %or.cond.i = or i1 %14, %15
  br i1 %or.cond.i, label %_ZNK10RegionNode10is_diamondEv.exit.thread, label %16

16:                                               ; preds = %7
  %17 = getelementptr inbounds i8, ptr %11, i64 8
  %18 = load ptr, ptr %17, align 8
  %19 = load ptr, ptr %18, align 8
  %20 = icmp eq ptr %19, null
  br i1 %20, label %_ZNK10RegionNode10is_diamondEv.exit.thread, label %21

21:                                               ; preds = %16
  %22 = getelementptr inbounds i8, ptr %19, i64 44
  %23 = load i32, ptr %22, align 4
  %24 = and i32 %23, 31
  %25 = icmp eq i32 %24, 21
  br i1 %25, label %26, label %_ZNK10RegionNode10is_diamondEv.exit.thread

26:                                               ; preds = %21
  %27 = getelementptr inbounds i8, ptr %13, i64 8
  %28 = load ptr, ptr %27, align 8
  %29 = load ptr, ptr %28, align 8
  %.not17.i = icmp eq ptr %19, %29
  br i1 %.not17.i, label %30, label %_ZNK10RegionNode10is_diamondEv.exit.thread

30:                                               ; preds = %26
  %31 = getelementptr inbounds i8, ptr %19, i64 8
  %32 = load ptr, ptr %31, align 8
  %33 = getelementptr inbounds i8, ptr %32, i64 8
  %34 = load ptr, ptr %33, align 8
  %35 = getelementptr inbounds i8, ptr %34, i64 44
  %36 = load i32, ptr %35, align 4
  %37 = and i32 %36, 511
  %38 = icmp eq i32 %37, 256
  br i1 %38, label %_ZNK10RegionNode10is_diamondEv.exit, label %_ZNK10RegionNode10is_diamondEv.exit.thread

_ZNK10RegionNode10is_diamondEv.exit:              ; preds = %30
  %39 = getelementptr inbounds i8, ptr %34, i64 8
  %40 = load ptr, ptr %39, align 8
  %41 = getelementptr inbounds i8, ptr %40, i64 8
  %42 = load ptr, ptr %41, align 8
  %43 = getelementptr inbounds i8, ptr %42, i64 44
  %44 = load i32, ptr %43, align 4
  %45 = and i32 %44, 255
  %46 = icmp eq i32 %45, 192
  br i1 %46, label %47, label %_ZNK10RegionNode10is_diamondEv.exit.thread

47:                                               ; preds = %_ZNK10RegionNode10is_diamondEv.exit
  %48 = getelementptr inbounds i8, ptr %11, i64 44
  %49 = load i32, ptr %48, align 4
  %50 = and i32 %49, 255
  %51 = icmp eq i32 %50, 200
  %. = select i1 %51, i32 1, i32 2
  br label %_ZNK10RegionNode10is_diamondEv.exit.thread

_ZNK10RegionNode10is_diamondEv.exit.thread:       ; preds = %30, %16, %21, %26, %7, %1, %47, %_ZNK10RegionNode10is_diamondEv.exit
  %.0 = phi i32 [ 0, %_ZNK10RegionNode10is_diamondEv.exit ], [ %., %47 ], [ 0, %1 ], [ 0, %7 ], [ 0, %26 ], [ 0, %21 ], [ 0, %16 ], [ 0, %30 ]
  ret i32 %.0
}